target datalayout = "e-m:e-p270:32:32-p271:32:32-p272:64:64-i64:64-i128:128-f80:128-n8:16:32:64-S128"
target triple = "x86_64-pc-linux-gnu"

%struct.FunctionCallInfoBaseData = type { ptr, ptr, ptr, i32, i8, i16, [0 x %struct.NullableDatum] }
%struct.NullableDatum = type { i64, i8 }
%struct.nameData = type { [64 x i8] }
%struct.ReplicationSlot = type { i8, i8, i32, i8, i8, i32, i32, %struct.ReplicationSlotPersistentData, %struct.LWLock, %struct.ConditionVariable, i32, i64, i64, i64, i64, i64 }
%struct.ReplicationSlotPersistentData = type { %struct.nameData, i32, i32, i32, i32, i64, i32, i64, i64, i8, %struct.nameData, i8, i8 }
%struct.LWLock = type { i16, %struct.pg_atomic_uint32, %struct.proclist_head }
%struct.pg_atomic_uint32 = type { i32 }
%struct.proclist_head = type { i32, i32 }
%struct.ConditionVariable = type { i8, %struct.proclist_head }
%struct.HeapTupleData = type { i32, %struct.ItemPointerData, i32, ptr }
%struct.ItemPointerData = type { %struct.BlockIdData, i16 }
%struct.BlockIdData = type { i16, i16 }
%struct.XLogReaderRoutine = type { ptr, ptr, ptr }

@.str = private unnamed_addr constant [31 x i8] c"return type must be a row type\00", align 1
@.str.1 = private unnamed_addr constant [12 x i8] c"slotfuncs.c\00", align 1
@MyReplicationSlot = external global ptr, align 8
@__func__.pg_create_logical_replication_slot = private unnamed_addr constant [35 x i8] c"pg_create_logical_replication_slot\00", align 1

; Function Attrs: inlinehint nounwind uwtable
define internal i64 @PointerGetDatum(ptr noundef %0) #2 {
  %2 = alloca ptr, align 8
  store ptr %0, ptr %2, align 8
  %3 = load ptr, ptr %2, align 8
  %4 = ptrtoint ptr %3 to i64
  ret i64 %4
}

; Function Attrs: inlinehint nounwind uwtable
define internal i64 @Int64GetDatum(i64 noundef %0) #2 {
  %2 = alloca i64, align 8
  store i64 %0, ptr %2, align 8
  %3 = load i64, ptr %2, align 8
  ret i64 %3
}

; Function Attrs: inlinehint nounwind uwtable
define internal i64 @CStringGetDatum(ptr noundef %0) #2 {
  %2 = alloca ptr, align 8
  store ptr %0, ptr %2, align 8
  %3 = load ptr, ptr %2, align 8
  %4 = call i64 @PointerGetDatum(ptr noundef %3)
  ret i64 %4
}

; Function Attrs: inlinehint nounwind uwtable
define internal ptr @DatumGetPointer(i64 noundef %0) #2 {
  %2 = alloca i64, align 8
  store i64 %0, ptr %2, align 8
  %3 = load i64, ptr %2, align 8
  %4 = inttoptr i64 %3 to ptr
  ret ptr %4
}

; Function Attrs: inlinehint nounwind uwtable
define internal i64 @HeapTupleGetDatum(ptr noundef %0) #2 {
  %2 = alloca ptr, align 8
  store ptr %0, ptr %2, align 8
  %3 = load ptr, ptr %2, align 8
  %4 = getelementptr inbounds nuw %struct.HeapTupleData, ptr %3, i32 0, i32 3
  %5 = load ptr, ptr %4, align 8
  %6 = call i64 @HeapTupleHeaderGetDatum(ptr noundef %5)
  ret i64 %6
}

; Function Attrs: inlinehint nounwind uwtable
define internal i64 @LSNGetDatum(i64 noundef %0) #2 {
  %2 = alloca i64, align 8
  store i64 %0, ptr %2, align 8
  %3 = load i64, ptr %2, align 8
  %4 = call i64 @Int64GetDatum(i64 noundef %3)
  ret i64 %4
}

; Function Attrs: inlinehint nounwind uwtable
define internal i64 @NameGetDatum(ptr noundef %0) #2 {
  %2 = alloca ptr, align 8
  store ptr %0, ptr %2, align 8
  %3 = load ptr, ptr %2, align 8
  %4 = getelementptr inbounds nuw %struct.nameData, ptr %3, i32 0, i32 0
  %5 = getelementptr inbounds [64 x i8], ptr %4, i64 0, i64 0
  %6 = call i64 @CStringGetDatum(ptr noundef %5)
  ret i64 %6
}

; Function Attrs: nounwind uwtable
define internal void @create_logical_replication_slot(ptr noundef %0, ptr noundef %1, i1 noundef zeroext %2, i1 noundef zeroext %3, i1 noundef zeroext %4, i64 noundef %5, i1 noundef zeroext %6) #0 {
  %8 = alloca ptr, align 8
  %9 = alloca ptr, align 8
  %10 = alloca i8, align 1
  %11 = alloca i8, align 1
  %12 = alloca i8, align 1
  %13 = alloca i64, align 8
  %14 = alloca i8, align 1
  %15 = alloca ptr, align 8
  %16 = alloca %struct.XLogReaderRoutine, align 8
  store ptr %0, ptr %8, align 8
  store ptr %1, ptr %9, align 8
  %17 = zext i1 %2 to i8
  store i8 %17, ptr %10, align 1
  %18 = zext i1 %3 to i8
  store i8 %18, ptr %11, align 1
  %19 = zext i1 %4 to i8
  store i8 %19, ptr %12, align 1
  store i64 %5, ptr %13, align 8
  %20 = zext i1 %6 to i8
  store i8 %20, ptr %14, align 1
  call void @llvm.lifetime.start.p0(i64 8, ptr %15) #8
  store ptr null, ptr %15, align 8
  %21 = load ptr, ptr %8, align 8
  %22 = load i8, ptr %10, align 1, !range !4, !noundef !5
  %23 = trunc i8 %22 to i1
  %24 = select i1 %23, i32 2, i32 1
  %25 = load i8, ptr %11, align 1, !range !4, !noundef !5
  %26 = trunc i8 %25 to i1
  %27 = load i8, ptr %12, align 1, !range !4, !noundef !5
  %28 = trunc i8 %27 to i1
  call void @ReplicationSlotCreate(ptr noundef %21, i1 noundef zeroext true, i32 noundef %24, i1 noundef zeroext %26, i1 noundef zeroext %28, i1 noundef zeroext false)
  %29 = load ptr, ptr %9, align 8
  %30 = load i64, ptr %13, align 8
  %31 = getelementptr inbounds nuw %struct.XLogReaderRoutine, ptr %16, i32 0, i32 0
  store ptr @read_local_xlog_page, ptr %31, align 8
  %32 = getelementptr inbounds nuw %struct.XLogReaderRoutine, ptr %16, i32 0, i32 1
  store ptr @wal_segment_open, ptr %32, align 8
  %33 = getelementptr inbounds nuw %struct.XLogReaderRoutine, ptr %16, i32 0, i32 2
  store ptr @wal_segment_close, ptr %33, align 8
  %34 = call ptr @CreateInitDecodingContext(ptr noundef %29, ptr noundef null, i1 noundef zeroext false, i64 noundef %30, ptr noundef %16, ptr noundef null, ptr noundef null, ptr noundef null)
  store ptr %34, ptr %15, align 8
  %35 = load i8, ptr %14, align 1, !range !4, !noundef !5
  %36 = trunc i8 %35 to i1
  br i1 %36, label %37, label %39

37:                                               ; preds = %7
  %38 = load ptr, ptr %15, align 8
  call void @DecodingContextFindStartpoint(ptr noundef %38)
  br label %39

39:                                               ; preds = %37, %7
  %40 = load ptr, ptr %15, align 8
  call void @FreeDecodingContext(ptr noundef %40)
  call void @llvm.lifetime.end.p0(i64 8, ptr %15) #8
  ret void
}

; Function Attrs: inlinehint nounwind uwtable
define internal zeroext i1 @DatumGetBool(i64 noundef %0) #2 {
  %2 = alloca i64, align 8
  store i64 %0, ptr %2, align 8
  %3 = load i64, ptr %2, align 8
  %4 = icmp ne i64 %3, 0
  ret i1 %4
}

; Function Attrs: inlinehint nounwind uwtable
define internal ptr @DatumGetName(i64 noundef %0) #2 {
  %2 = alloca i64, align 8
  store i64 %0, ptr %2, align 8
  %3 = load i64, ptr %2, align 8
  %4 = call ptr @DatumGetPointer(i64 noundef %3)
  ret ptr %4
}

; Function Attrs: nounwind uwtable
define dso_local i64 @pg_create_logical_replication_slot(ptr noundef %0) #0 {
  %2 = alloca ptr, align 8
  %3 = alloca ptr, align 8
  %4 = alloca ptr, align 8
  %5 = alloca i8, align 1
  %6 = alloca i8, align 1
  %7 = alloca i8, align 1
  %8 = alloca i64, align 8
  %9 = alloca ptr, align 8
  %10 = alloca ptr, align 8
  %11 = alloca [2 x i64], align 16
  %12 = alloca [2 x i8], align 1
  store ptr %0, ptr %2, align 8
  call void @llvm.lifetime.start.p0(i64 8, ptr %3) #8
  %13 = load ptr, ptr %2, align 8
  %14 = getelementptr inbounds nuw %struct.FunctionCallInfoBaseData, ptr %13, i32 0, i32 6
  %15 = getelementptr inbounds [0 x %struct.NullableDatum], ptr %14, i64 0, i64 0
  %16 = getelementptr inbounds nuw %struct.NullableDatum, ptr %15, i32 0, i32 0
  %17 = load i64, ptr %16, align 8
  %18 = call ptr @DatumGetName(i64 noundef %17)
  store ptr %18, ptr %3, align 8
  call void @llvm.lifetime.start.p0(i64 8, ptr %4) #8
  %19 = load ptr, ptr %2, align 8
  %20 = getelementptr inbounds nuw %struct.FunctionCallInfoBaseData, ptr %19, i32 0, i32 6
  %21 = getelementptr inbounds [0 x %struct.NullableDatum], ptr %20, i64 0, i64 1
  %22 = getelementptr inbounds nuw %struct.NullableDatum, ptr %21, i32 0, i32 0
  %23 = load i64, ptr %22, align 8
  %24 = call ptr @DatumGetName(i64 noundef %23)
  store ptr %24, ptr %4, align 8
  call void @llvm.lifetime.start.p0(i64 1, ptr %5) #8
  %25 = load ptr, ptr %2, align 8
  %26 = getelementptr inbounds nuw %struct.FunctionCallInfoBaseData, ptr %25, i32 0, i32 6
  %27 = getelementptr inbounds [0 x %struct.NullableDatum], ptr %26, i64 0, i64 2
  %28 = getelementptr inbounds nuw %struct.NullableDatum, ptr %27, i32 0, i32 0
  %29 = load i64, ptr %28, align 8
  %30 = call zeroext i1 @DatumGetBool(i64 noundef %29)
  %31 = zext i1 %30 to i8
  store i8 %31, ptr %5, align 1
  call void @llvm.lifetime.start.p0(i64 1, ptr %6) #8
  %32 = load ptr, ptr %2, align 8
  %33 = getelementptr inbounds nuw %struct.FunctionCallInfoBaseData, ptr %32, i32 0, i32 6
  %34 = getelementptr inbounds [0 x %struct.NullableDatum], ptr %33, i64 0, i64 3
  %35 = getelementptr inbounds nuw %struct.NullableDatum, ptr %34, i32 0, i32 0
  %36 = load i64, ptr %35, align 8
  %37 = call zeroext i1 @DatumGetBool(i64 noundef %36)
  %38 = zext i1 %37 to i8
  store i8 %38, ptr %6, align 1
  call void @llvm.lifetime.start.p0(i64 1, ptr %7) #8
  %39 = load ptr, ptr %2, align 8
  %40 = getelementptr inbounds nuw %struct.FunctionCallInfoBaseData, ptr %39, i32 0, i32 6
  %41 = getelementptr inbounds [0 x %struct.NullableDatum], ptr %40, i64 0, i64 4
  %42 = getelementptr inbounds nuw %struct.NullableDatum, ptr %41, i32 0, i32 0
  %43 = load i64, ptr %42, align 8
  %44 = call zeroext i1 @DatumGetBool(i64 noundef %43)
  %45 = zext i1 %44 to i8
  store i8 %45, ptr %7, align 1
  call void @llvm.lifetime.start.p0(i64 8, ptr %8) #8
  call void @llvm.lifetime.start.p0(i64 8, ptr %9) #8
  call void @llvm.lifetime.start.p0(i64 8, ptr %10) #8
  call void @llvm.lifetime.start.p0(i64 16, ptr %11) #8
  call void @llvm.lifetime.start.p0(i64 2, ptr %12) #8
  %46 = load ptr, ptr %2, align 8
  %47 = call i32 @get_call_result_type(ptr noundef %46, ptr noundef null, ptr noundef %9)
  %48 = icmp ne i32 %47, 1
  br i1 %48, label %49, label %60

49:                                               ; preds = %1
  br label %50

50:                                               ; preds = %49
  br i1 true, label %51, label %53

51:                                               ; preds = %50
  %52 = call zeroext i1 @errstart_cold(i32 noundef 21, ptr noundef null) #9
  br i1 %52, label %55, label %57

53:                                               ; preds = %50
  %54 = call zeroext i1 @errstart(i32 noundef 21, ptr noundef null)
  br i1 %54, label %55, label %57

55:                                               ; preds = %53, %51
  %56 = call i32 (ptr, ...) @errmsg_internal(ptr noundef @.str)
  call void @errfinish(ptr noundef @.str.1, i32 noundef 183, ptr noundef @__func__.pg_create_logical_replication_slot)
  br label %57

57:                                               ; preds = %55, %53, %51
  unreachable

58:                                               ; No predecessors!
  br label %59

59:                                               ; preds = %58
  br label %60

60:                                               ; preds = %59, %1
  call void @CheckSlotPermissions()
  call void @CheckLogicalDecodingRequirements()
  %61 = load ptr, ptr %3, align 8
  %62 = getelementptr inbounds nuw %struct.nameData, ptr %61, i32 0, i32 0
  %63 = getelementptr inbounds [64 x i8], ptr %62, i64 0, i64 0
  %64 = load ptr, ptr %4, align 8
  %65 = getelementptr inbounds nuw %struct.nameData, ptr %64, i32 0, i32 0
  %66 = getelementptr inbounds [64 x i8], ptr %65, i64 0, i64 0
  %67 = load i8, ptr %5, align 1, !range !4, !noundef !5
  %68 = trunc i8 %67 to i1
  %69 = load i8, ptr %6, align 1, !range !4, !noundef !5
  %70 = trunc i8 %69 to i1
  %71 = load i8, ptr %7, align 1, !range !4, !noundef !5
  %72 = trunc i8 %71 to i1
  call void @create_logical_replication_slot(ptr noundef %63, ptr noundef %66, i1 noundef zeroext %68, i1 noundef zeroext %70, i1 noundef zeroext %72, i64 noundef 0, i1 noundef zeroext true)
  %73 = load ptr, ptr @MyReplicationSlot, align 8
  %74 = getelementptr inbounds nuw %struct.ReplicationSlot, ptr %73, i32 0, i32 7
  %75 = getelementptr inbounds nuw %struct.ReplicationSlotPersistentData, ptr %74, i32 0, i32 0
  %76 = call i64 @NameGetDatum(ptr noundef %75)
  %77 = getelementptr inbounds [2 x i64], ptr %11, i64 0, i64 0
  store i64 %76, ptr %77, align 16
  %78 = load ptr, ptr @MyReplicationSlot, align 8
  %79 = getelementptr inbounds nuw %struct.ReplicationSlot, ptr %78, i32 0, i32 7
  %80 = getelementptr inbounds nuw %struct.ReplicationSlotPersistentData, ptr %79, i32 0, i32 7
  %81 = load i64, ptr %80, align 8
  %82 = call i64 @LSNGetDatum(i64 noundef %81)
  %83 = getelementptr inbounds [2 x i64], ptr %11, i64 0, i64 1
  store i64 %82, ptr %83, align 8
  %84 = getelementptr inbounds [2 x i8], ptr %12, i64 0, i64 0
  call void @llvm.memset.p0.i64(ptr align 1 %84, i8 0, i64 2, i1 false)
  %85 = load ptr, ptr %9, align 8
  %86 = getelementptr inbounds [2 x i64], ptr %11, i64 0, i64 0
  %87 = getelementptr inbounds [2 x i8], ptr %12, i64 0, i64 0
  %88 = call ptr @heap_form_tuple(ptr noundef %85, ptr noundef %86, ptr noundef %87)
  store ptr %88, ptr %10, align 8
  %89 = load ptr, ptr %10, align 8
  %90 = call i64 @HeapTupleGetDatum(ptr noundef %89)
  store i64 %90, ptr %8, align 8
  %91 = load i8, ptr %5, align 1, !range !4, !noundef !5
  %92 = trunc i8 %91 to i1
  br i1 %92, label %94, label %93

93:                                               ; preds = %60
  call void @ReplicationSlotPersist()
  br label %94

94:                                               ; preds = %93, %60
  call void @ReplicationSlotRelease()
  %95 = load i64, ptr %8, align 8
  call void @llvm.lifetime.end.p0(i64 2, ptr %12) #8
  call void @llvm.lifetime.end.p0(i64 16, ptr %11) #8
  call void @llvm.lifetime.end.p0(i64 8, ptr %10) #8
  call void @llvm.lifetime.end.p0(i64 8, ptr %9) #8
  call void @llvm.lifetime.end.p0(i64 8, ptr %8) #8
  call void @llvm.lifetime.end.p0(i64 1, ptr %7) #8
  call void @llvm.lifetime.end.p0(i64 1, ptr %6) #8
  call void @llvm.lifetime.end.p0(i64 1, ptr %5) #8
  call void @llvm.lifetime.end.p0(i64 8, ptr %4) #8
  call void @llvm.lifetime.end.p0(i64 8, ptr %3) #8
  ret i64 %95
}