; Function Attrs: nounwind uwtable
define dso_local i64 @pg_create_logical_replication_slot(ptr noundef %0) local_unnamed_addr #0 {
  %2 = alloca %struct.XLogReaderRoutine, align 8
  %3 = alloca ptr, align 8
  %4 = alloca [2 x i64], align 16
  %5 = alloca [2 x i8], align 2
  %6 = getelementptr inbounds nuw i8, ptr %0, i64 32
  %7 = load i64, ptr %6, align 8
  %8 = getelementptr inbounds nuw i8, ptr %0, i64 48
  %9 = load i64, ptr %8, align 8
  %10 = getelementptr inbounds nuw i8, ptr %0, i64 64
  %11 = load i64, ptr %10, align 8
  %12 = getelementptr inbounds nuw i8, ptr %0, i64 80
  %13 = load i64, ptr %12, align 8
  %14 = getelementptr inbounds nuw i8, ptr %0, i64 96
  %15 = load i64, ptr %14, align 8
  call void @llvm.lifetime.start.p0(i64 8, ptr nonnull %3) #9
  call void @llvm.lifetime.start.p0(i64 16, ptr nonnull %4) #9
  call void @llvm.lifetime.start.p0(i64 2, ptr nonnull %5) #9
  %16 = call i32 @get_call_result_type(ptr noundef %0, ptr noundef null, ptr noundef nonnull %3) #9
  %.not = icmp eq i32 %16, 1
  br i1 %.not, label %20, label %17

17:                                               ; preds = %1
  %18 = call zeroext i1 @errstart_cold(i32 noundef 21, ptr noundef null) #10
  call void @llvm.assume(i1 %18)
  %19 = call i32 (ptr, ...) @errmsg_internal(ptr noundef nonnull @.str) #9
  call void @errfinish(ptr noundef nonnull @.str.1, i32 noundef 183, ptr noundef nonnull @__func__.pg_create_logical_replication_slot) #9
  unreachable

20:                                               ; preds = %1
  %21 = icmp ne i64 %15, 0
  %22 = icmp ne i64 %13, 0
  %.not13 = icmp eq i64 %11, 0
  %23 = inttoptr i64 %9 to ptr
  %24 = inttoptr i64 %7 to ptr
  call void @CheckSlotPermissions() #9
  call void @CheckLogicalDecodingRequirements() #9
  call void @llvm.lifetime.start.p0(i64 24, ptr nonnull %2)
  %25 = select i1 %.not13, i32 1, i32 2
  call void @ReplicationSlotCreate(ptr noundef %24, i1 noundef zeroext true, i32 noundef %25, i1 noundef zeroext %22, i1 noundef zeroext %21, i1 noundef zeroext false) #9
  store ptr @read_local_xlog_page, ptr %2, align 8
  %26 = getelementptr inbounds nuw i8, ptr %2, i64 8
  store ptr @wal_segment_open, ptr %26, align 8
  %27 = getelementptr inbounds nuw i8, ptr %2, i64 16
  store ptr @wal_segment_close, ptr %27, align 8
  %28 = call ptr @CreateInitDecodingContext(ptr noundef %23, ptr noundef null, i1 noundef zeroext false, i64 noundef 0, ptr noundef nonnull %2, ptr noundef null, ptr noundef null, ptr noundef null) #9
  call void @DecodingContextFindStartpoint(ptr noundef %28) #9
  call void @FreeDecodingContext(ptr noundef %28) #9
  call void @llvm.lifetime.end.p0(i64 24, ptr nonnull %2)
  %29 = load ptr, ptr @MyReplicationSlot, align 8
  %30 = getelementptr inbounds nuw i8, ptr %29, i64 24
  %31 = ptrtoint ptr %30 to i64
  store i64 %31, ptr %4, align 16
  %32 = getelementptr inbounds nuw i8, ptr %29, i64 120
  %33 = load i64, ptr %32, align 8
  %34 = getelementptr inbounds nuw i8, ptr %4, i64 8
  store i64 %33, ptr %34, align 8
  store i16 0, ptr %5, align 2
  %35 = load ptr, ptr %3, align 8
  %36 = call ptr @heap_form_tuple(ptr noundef %35, ptr noundef nonnull %4, ptr noundef nonnull %5) #9
  %37 = getelementptr i8, ptr %36, i64 16
  %.val = load ptr, ptr %37, align 8
  %38 = call i64 @HeapTupleHeaderGetDatum(ptr noundef %.val) #9
  br i1 %.not13, label %39, label %40

39:                                               ; preds = %20
  call void @ReplicationSlotPersist() #9
  br label %40

40:                                               ; preds = %39, %20
  call void @ReplicationSlotRelease() #9
  call void @llvm.lifetime.end.p0(i64 2, ptr nonnull %5) #9
  call void @llvm.lifetime.end.p0(i64 16, ptr nonnull %4) #9
  call void @llvm.lifetime.end.p0(i64 8, ptr nonnull %3) #9
  ret i64 %38
}